; Function Attrs: mustprogress uwtable
define void @_ZNK6casadi5Bilin4dispERKSt6vectorINSt7__cxx1112basic_stringIcSt11char_traitsIcESaIcEEESaIS7_EE(ptr dead_on_unwind noalias writable sret(%"class.std::__cxx11::basic_string") align 8 %0, ptr nocapture nonnull readnone align 8 %1, ptr nocapture noundef nonnull readonly align 8 dereferenceable(24) %2) unnamed_addr #3 align 2 personality ptr @__gxx_personality_v0 {
  %4 = alloca %"class.std::__cxx11::basic_string", align 8
  %5 = alloca %"class.std::__cxx11::basic_string", align 8
  %6 = alloca %"class.std::__cxx11::basic_string", align 8
  %7 = alloca %"class.std::__cxx11::basic_string", align 8
  %8 = alloca %"class.std::__cxx11::basic_string", align 8
  %9 = getelementptr inbounds i8, ptr %2, i64 8
  %10 = load ptr, ptr %9, align 8
  %11 = load ptr, ptr %2, align 8
  %.not.i.i.not = icmp eq ptr %10, %11
  br i1 %.not.i.i.not, label %12, label %_ZNKSt6vectorINSt7__cxx1112basic_stringIcSt11char_traitsIcESaIcEEESaIS5_EE2atEm.exit

12:                                               ; preds = %3
  tail call void (ptr, ...) @_ZSt24__throw_out_of_range_fmtPKcz(ptr noundef nonnull @.str.15, i64 noundef 0, i64 noundef 0) #14
  unreachable

_ZNKSt6vectorINSt7__cxx1112basic_stringIcSt11char_traitsIcESaIcEEESaIS5_EE2atEm.exit: ; preds = %3
  call void @_ZStplIcSt11char_traitsIcESaIcEENSt7__cxx1112basic_stringIT_T0_T1_EEPKS5_RKS8_(ptr dead_on_unwind nonnull writable sret(%"class.std::__cxx11::basic_string") align 8 %8, ptr noundef nonnull @.str.6, ptr noundef nonnull align 8 dereferenceable(32) %11)
  %13 = invoke noundef nonnull align 8 dereferenceable(32) ptr @_ZNSt7__cxx1112basic_stringIcSt11char_traitsIcESaIcEE6appendEPKc(ptr noundef nonnull align 8 dereferenceable(32) %8, ptr noundef nonnull @.str.7)
          to label %14 unwind label %41

14:                                               ; preds = %_ZNKSt6vectorINSt7__cxx1112basic_stringIcSt11char_traitsIcESaIcEEESaIS5_EE2atEm.exit
  call void @_ZNSt7__cxx1112basic_stringIcSt11char_traitsIcESaIcEEC1EOS4_(ptr noundef nonnull align 8 dereferenceable(32) %7, ptr noundef nonnull align 8 dereferenceable(32) %13) #13
  %15 = load ptr, ptr %9, align 8
  %16 = load ptr, ptr %2, align 8
  %17 = ptrtoint ptr %15 to i64
  %18 = ptrtoint ptr %16 to i64
  %19 = sub i64 %17, %18
  %20 = ashr exact i64 %19, 5
  %.not.i.i12 = icmp ugt i64 %20, 1
  br i1 %.not.i.i12, label %22, label %21

21:                                               ; preds = %14
  invoke void (ptr, ...) @_ZSt24__throw_out_of_range_fmtPKcz(ptr noundef nonnull @.str.15, i64 noundef 1, i64 noundef %20) #14
          to label %.noexc unwind label %43

.noexc:                                           ; preds = %21
  unreachable

22:                                               ; preds = %14
  %23 = getelementptr inbounds i8, ptr %16, i64 32
  %24 = invoke noundef nonnull align 8 dereferenceable(32) ptr @_ZNSt7__cxx1112basic_stringIcSt11char_traitsIcESaIcEE6appendERKS4_(ptr noundef nonnull align 8 dereferenceable(32) %7, ptr noundef nonnull align 8 dereferenceable(32) %23)
          to label %25 unwind label %43

25:                                               ; preds = %22
  call void @_ZNSt7__cxx1112basic_stringIcSt11char_traitsIcESaIcEEC1EOS4_(ptr noundef nonnull align 8 dereferenceable(32) %6, ptr noundef nonnull align 8 dereferenceable(32) %24) #13
  %26 = invoke noundef nonnull align 8 dereferenceable(32) ptr @_ZNSt7__cxx1112basic_stringIcSt11char_traitsIcESaIcEE6appendEPKc(ptr noundef nonnull align 8 dereferenceable(32) %6, ptr noundef nonnull @.str.7)
          to label %27 unwind label %45

27:                                               ; preds = %25
  call void @_ZNSt7__cxx1112basic_stringIcSt11char_traitsIcESaIcEEC1EOS4_(ptr noundef nonnull align 8 dereferenceable(32) %5, ptr noundef nonnull align 8 dereferenceable(32) %26) #13
  %28 = load ptr, ptr %9, align 8
  %29 = load ptr, ptr %2, align 8
  %30 = ptrtoint ptr %28 to i64
  %31 = ptrtoint ptr %29 to i64
  %32 = sub i64 %30, %31
  %33 = ashr exact i64 %32, 5
  %.not.i.i17 = icmp ugt i64 %33, 2
  br i1 %.not.i.i17, label %35, label %34

34:                                               ; preds = %27
  invoke void (ptr, ...) @_ZSt24__throw_out_of_range_fmtPKcz(ptr noundef nonnull @.str.15, i64 noundef 2, i64 noundef %33) #14
          to label %.noexc18 unwind label %47

.noexc18:                                         ; preds = %34
  unreachable

35:                                               ; preds = %27
  %36 = getelementptr inbounds i8, ptr %29, i64 64
  %37 = invoke noundef nonnull align 8 dereferenceable(32) ptr @_ZNSt7__cxx1112basic_stringIcSt11char_traitsIcESaIcEE6appendERKS4_(ptr noundef nonnull align 8 dereferenceable(32) %5, ptr noundef nonnull align 8 dereferenceable(32) %36)
          to label %38 unwind label %47

38:                                               ; preds = %35
  call void @_ZNSt7__cxx1112basic_stringIcSt11char_traitsIcESaIcEEC1EOS4_(ptr noundef nonnull align 8 dereferenceable(32) %4, ptr noundef nonnull align 8 dereferenceable(32) %37) #13
  %39 = invoke noundef nonnull align 8 dereferenceable(32) ptr @_ZNSt7__cxx1112basic_stringIcSt11char_traitsIcESaIcEE6appendEPKc(ptr noundef nonnull align 8 dereferenceable(32) %4, ptr noundef nonnull @.str.8)
          to label %40 unwind label %49

40:                                               ; preds = %38
  call void @_ZNSt7__cxx1112basic_stringIcSt11char_traitsIcESaIcEEC1EOS4_(ptr noundef nonnull align 8 dereferenceable(32) %0, ptr noundef nonnull align 8 dereferenceable(32) %39) #13
  call void @_ZNSt7__cxx1112basic_stringIcSt11char_traitsIcESaIcEED1Ev(ptr noundef nonnull align 8 dereferenceable(32) %4) #13
  call void @_ZNSt7__cxx1112basic_stringIcSt11char_traitsIcESaIcEED1Ev(ptr noundef nonnull align 8 dereferenceable(32) %5) #13
  call void @_ZNSt7__cxx1112basic_stringIcSt11char_traitsIcESaIcEED1Ev(ptr noundef nonnull align 8 dereferenceable(32) %6) #13
  call void @_ZNSt7__cxx1112basic_stringIcSt11char_traitsIcESaIcEED1Ev(ptr noundef nonnull align 8 dereferenceable(32) %7) #13
  call void @_ZNSt7__cxx1112basic_stringIcSt11char_traitsIcESaIcEED1Ev(ptr noundef nonnull align 8 dereferenceable(32) %8) #13
  ret void

41:                                               ; preds = %_ZNKSt6vectorINSt7__cxx1112basic_stringIcSt11char_traitsIcESaIcEEESaIS5_EE2atEm.exit
  %42 = landingpad { ptr, i32 }
          cleanup
  br label %54

43:                                               ; preds = %22, %21
  %44 = landingpad { ptr, i32 }
          cleanup
  br label %53

45:                                               ; preds = %25
  %46 = landingpad { ptr, i32 }
          cleanup
  br label %52

47:                                               ; preds = %35, %34
  %48 = landingpad { ptr, i32 }
          cleanup
  br label %51

49:                                               ; preds = %38
  %50 = landingpad { ptr, i32 }
          cleanup
  call void @_ZNSt7__cxx1112basic_stringIcSt11char_traitsIcESaIcEED1Ev(ptr noundef nonnull align 8 dereferenceable(32) %4) #13
  br label %51

51:                                               ; preds = %49, %47
  %.pn = phi { ptr, i32 } [ %50, %49 ], [ %48, %47 ]
  call void @_ZNSt7__cxx1112basic_stringIcSt11char_traitsIcESaIcEED1Ev(ptr noundef nonnull align 8 dereferenceable(32) %5) #13
  br label %52

52:                                               ; preds = %51, %45
  %.pn.pn = phi { ptr, i32 } [ %.pn, %51 ], [ %46, %45 ]
  call void @_ZNSt7__cxx1112basic_stringIcSt11char_traitsIcESaIcEED1Ev(ptr noundef nonnull align 8 dereferenceable(32) %6) #13
  br label %53

53:                                               ; preds = %52, %43
  %.pn.pn.pn = phi { ptr, i32 } [ %.pn.pn, %52 ], [ %44, %43 ]
  call void @_ZNSt7__cxx1112basic_stringIcSt11char_traitsIcESaIcEED1Ev(ptr noundef nonnull align 8 dereferenceable(32) %7) #13
  br label %54

54:                                               ; preds = %53, %41
  %.pn.pn.pn.pn = phi { ptr, i32 } [ %.pn.pn.pn, %53 ], [ %42, %41 ]
  call void @_ZNSt7__cxx1112basic_stringIcSt11char_traitsIcESaIcEED1Ev(ptr noundef nonnull align 8 dereferenceable(32) %8) #13
  resume { ptr, i32 } %.pn.pn.pn.pn
}